; Function Attrs: mustprogress nounwind willreturn uwtable
define void @Gli_ManStop(ptr noundef captures(none) %0) local_unnamed_addr #3 {
  %2 = load ptr, ptr %0, align 8, !tbaa !15
  %3 = getelementptr inbounds nuw i8, ptr %2, i64 8
  %4 = load ptr, ptr %3, align 8, !tbaa !14
  %.not.i = icmp eq ptr %4, null
  br i1 %.not.i, label %Vec_IntFree.exit, label %5

5:                                                ; preds = %1
  tail call void @free(ptr noundef nonnull %4) #24
  br label %Vec_IntFree.exit

Vec_IntFree.exit:                                 ; preds = %1, %5
  tail call void @free(ptr noundef nonnull %2) #24
  %6 = getelementptr inbounds nuw i8, ptr %0, i64 8
  %7 = load ptr, ptr %6, align 8, !tbaa !16
  %8 = getelementptr inbounds nuw i8, ptr %7, i64 8
  %9 = load ptr, ptr %8, align 8, !tbaa !14
  %.not.i10 = icmp eq ptr %9, null
  br i1 %.not.i10, label %Vec_IntFree.exit11, label %10

10:                                               ; preds = %Vec_IntFree.exit
  tail call void @free(ptr noundef nonnull %9) #24
  br label %Vec_IntFree.exit11

Vec_IntFree.exit11:                               ; preds = %Vec_IntFree.exit, %10
  tail call void @free(ptr noundef nonnull %7) #24
  %11 = getelementptr inbounds nuw i8, ptr %0, i64 16
  %12 = load ptr, ptr %11, align 8, !tbaa !17
  %13 = getelementptr inbounds nuw i8, ptr %12, i64 8
  %14 = load ptr, ptr %13, align 8, !tbaa !14
  %.not.i12 = icmp eq ptr %14, null
  br i1 %.not.i12, label %Vec_IntFree.exit13, label %15

15:                                               ; preds = %Vec_IntFree.exit11
  tail call void @free(ptr noundef nonnull %14) #24
  br label %Vec_IntFree.exit13

Vec_IntFree.exit13:                               ; preds = %Vec_IntFree.exit11, %15
  tail call void @free(ptr noundef nonnull %12) #24
  %16 = getelementptr inbounds nuw i8, ptr %0, i64 24
  %17 = load ptr, ptr %16, align 8, !tbaa !18
  %18 = getelementptr inbounds nuw i8, ptr %17, i64 8
  %19 = load ptr, ptr %18, align 8, !tbaa !14
  %.not.i14 = icmp eq ptr %19, null
  br i1 %.not.i14, label %Vec_IntFree.exit15, label %20

20:                                               ; preds = %Vec_IntFree.exit13
  tail call void @free(ptr noundef nonnull %19) #24
  br label %Vec_IntFree.exit15

Vec_IntFree.exit15:                               ; preds = %Vec_IntFree.exit13, %20
  tail call void @free(ptr noundef nonnull %17) #24
  %21 = getelementptr inbounds nuw i8, ptr %0, i64 32
  %22 = load ptr, ptr %21, align 8, !tbaa !19
  %23 = getelementptr inbounds nuw i8, ptr %22, i64 8
  %24 = load ptr, ptr %23, align 8, !tbaa !14
  %.not.i16 = icmp eq ptr %24, null
  br i1 %.not.i16, label %Vec_IntFree.exit17, label %25

25:                                               ; preds = %Vec_IntFree.exit15
  tail call void @free(ptr noundef nonnull %24) #24
  br label %Vec_IntFree.exit17

Vec_IntFree.exit17:                               ; preds = %Vec_IntFree.exit15, %25
  tail call void @free(ptr noundef nonnull %22) #24
  %26 = getelementptr inbounds nuw i8, ptr %0, i64 72
  %27 = load ptr, ptr %26, align 8, !tbaa !22
  %.not = icmp eq ptr %27, null
  br i1 %.not, label %29, label %28

28:                                               ; preds = %Vec_IntFree.exit17
  tail call void @free(ptr noundef nonnull %27) #24
  br label %29

29:                                               ; preds = %28, %Vec_IntFree.exit17
  tail call void @free(ptr noundef nonnull %0) #24
  ret void
}